#include <math.h>
#include <stdio.h>
#include <stdlib.h>
#include <string.h>

main()
{
    int a[100],m,n,b[100],i,j=0;
    scanf("%d %d",&m,&n);
    for(i=0;i<m;i++)
        scanf("%d",&a[i]);
    for(i=m-n;i<m;i++)
    {
        b[j]=a[i];
        j++;
    }
    for(j=0;j<n;j++)
    for(i=m-1;i>=0;i--)
    {
       a[i+1]=a[i];
    }
    for(i=0;i<n;i++)
    {
        a[i]=b[i];
    }
    for(i=0;i<m;i++)
    {
      if(i==0)
      printf("%d",a[i]);
      else
      printf(" %d", a[i]);
    }
    getchar();
    getchar();
} 