; ModuleID = '52/3939.c'
source_filename = "52/3939.c"
target datalayout = "e-m:e-p270:32:32-p271:32:32-p272:64:64-i64:64-f80:128-n8:16:32:64-S128"
target triple = "x86_64-pc-linux-gnu"

@.str = private unnamed_addr constant [6 x i8] c"%d %d\00", align 1
@.str.1 = private unnamed_addr constant [3 x i8] c"%d\00", align 1
@.str.2 = private unnamed_addr constant [4 x i8] c" %d\00", align 1

; Function Attrs: noinline nounwind uwtable
define dso_local i32 @main() #0 {
  %1 = alloca i32, align 4
  %2 = alloca [100 x i32], align 16
  %3 = alloca i32, align 4
  %4 = alloca i32, align 4
  %5 = alloca [100 x i32], align 16
  %6 = alloca i32, align 4
  %7 = alloca i32, align 4
  store i32 0, i32* %1, align 4
  store i32 0, i32* %7, align 4
  %8 = call i32 (i8*, ...) @__isoc99_scanf(i8* getelementptr inbounds ([6 x i8], [6 x i8]* @.str, i64 0, i64 0), i32* %3, i32* %4)
  store i32 0, i32* %6, align 4
  br label %9

9:                                                ; preds = %18, %0
  %10 = load i32, i32* %6, align 4
  %11 = load i32, i32* %3, align 4
  %12 = icmp slt i32 %10, %11
  br i1 %12, label %13, label %21

13:                                               ; preds = %9
  %14 = load i32, i32* %6, align 4
  %15 = sext i32 %14 to i64
  %16 = getelementptr inbounds [100 x i32], [100 x i32]* %2, i64 0, i64 %15
  %17 = call i32 (i8*, ...) @__isoc99_scanf(i8* getelementptr inbounds ([3 x i8], [3 x i8]* @.str.1, i64 0, i64 0), i32* %16)
  br label %18

18:                                               ; preds = %13
  %19 = load i32, i32* %6, align 4
  %20 = add nsw i32 %19, 1
  store i32 %20, i32* %6, align 4
  br label %9

21:                                               ; preds = %9
  %22 = load i32, i32* %3, align 4
  %23 = load i32, i32* %4, align 4
  %24 = sub nsw i32 %22, %23
  store i32 %24, i32* %6, align 4
  br label %25

25:                                               ; preds = %39, %21
  %26 = load i32, i32* %6, align 4
  %27 = load i32, i32* %3, align 4
  %28 = icmp slt i32 %26, %27
  br i1 %28, label %29, label %42

29:                                               ; preds = %25
  %30 = load i32, i32* %6, align 4
  %31 = sext i32 %30 to i64
  %32 = getelementptr inbounds [100 x i32], [100 x i32]* %2, i64 0, i64 %31
  %33 = load i32, i32* %32, align 4
  %34 = load i32, i32* %7, align 4
  %35 = sext i32 %34 to i64
  %36 = getelementptr inbounds [100 x i32], [100 x i32]* %5, i64 0, i64 %35
  store i32 %33, i32* %36, align 4
  %37 = load i32, i32* %7, align 4
  %38 = add nsw i32 %37, 1
  store i32 %38, i32* %7, align 4
  br label %39

39:                                               ; preds = %29
  %40 = load i32, i32* %6, align 4
  %41 = add nsw i32 %40, 1
  store i32 %41, i32* %6, align 4
  br label %25

42:                                               ; preds = %25
  store i32 0, i32* %7, align 4
  br label %43

43:                                               ; preds = %66, %42
  %44 = load i32, i32* %7, align 4
  %45 = load i32, i32* %4, align 4
  %46 = icmp slt i32 %44, %45
  br i1 %46, label %47, label %69

47:                                               ; preds = %43
  %48 = load i32, i32* %3, align 4
  %49 = sub nsw i32 %48, 1
  store i32 %49, i32* %6, align 4
  br label %50

50:                                               ; preds = %62, %47
  %51 = load i32, i32* %6, align 4
  %52 = icmp sge i32 %51, 0
  br i1 %52, label %53, label %65

53:                                               ; preds = %50
  %54 = load i32, i32* %6, align 4
  %55 = sext i32 %54 to i64
  %56 = getelementptr inbounds [100 x i32], [100 x i32]* %2, i64 0, i64 %55
  %57 = load i32, i32* %56, align 4
  %58 = load i32, i32* %6, align 4
  %59 = add nsw i32 %58, 1
  %60 = sext i32 %59 to i64
  %61 = getelementptr inbounds [100 x i32], [100 x i32]* %2, i64 0, i64 %60
  store i32 %57, i32* %61, align 4
  br label %62

62:                                               ; preds = %53
  %63 = load i32, i32* %6, align 4
  %64 = add nsw i32 %63, -1
  store i32 %64, i32* %6, align 4
  br label %50

65:                                               ; preds = %50
  br label %66

66:                                               ; preds = %65
  %67 = load i32, i32* %7, align 4
  %68 = add nsw i32 %67, 1
  store i32 %68, i32* %7, align 4
  br label %43

69:                                               ; preds = %43
  store i32 0, i32* %6, align 4
  br label %70

70:                                               ; preds = %82, %69
  %71 = load i32, i32* %6, align 4
  %72 = load i32, i32* %4, align 4
  %73 = icmp slt i32 %71, %72
  br i1 %73, label %74, label %85

74:                                               ; preds = %70
  %75 = load i32, i32* %6, align 4
  %76 = sext i32 %75 to i64
  %77 = getelementptr inbounds [100 x i32], [100 x i32]* %5, i64 0, i64 %76
  %78 = load i32, i32* %77, align 4
  %79 = load i32, i32* %6, align 4
  %80 = sext i32 %79 to i64
  %81 = getelementptr inbounds [100 x i32], [100 x i32]* %2, i64 0, i64 %80
  store i32 %78, i32* %81, align 4
  br label %82

82:                                               ; preds = %74
  %83 = load i32, i32* %6, align 4
  %84 = add nsw i32 %83, 1
  store i32 %84, i32* %6, align 4
  br label %70

85:                                               ; preds = %70
  store i32 0, i32* %6, align 4
  br label %86

86:                                               ; preds = %106, %85
  %87 = load i32, i32* %6, align 4
  %88 = load i32, i32* %3, align 4
  %89 = icmp slt i32 %87, %88
  br i1 %89, label %90, label %109

90:                                               ; preds = %86
  %91 = load i32, i32* %6, align 4
  %92 = icmp eq i32 %91, 0
  br i1 %92, label %93, label %99

93:                                               ; preds = %90
  %94 = load i32, i32* %6, align 4
  %95 = sext i32 %94 to i64
  %96 = getelementptr inbounds [100 x i32], [100 x i32]* %2, i64 0, i64 %95
  %97 = load i32, i32* %96, align 4
  %98 = call i32 (i8*, ...) @printf(i8* getelementptr inbounds ([3 x i8], [3 x i8]* @.str.1, i64 0, i64 0), i32 %97)
  br label %105

99:                                               ; preds = %90
  %100 = load i32, i32* %6, align 4
  %101 = sext i32 %100 to i64
  %102 = getelementptr inbounds [100 x i32], [100 x i32]* %2, i64 0, i64 %101
  %103 = load i32, i32* %102, align 4
  %104 = call i32 (i8*, ...) @printf(i8* getelementptr inbounds ([4 x i8], [4 x i8]* @.str.2, i64 0, i64 0), i32 %103)
  br label %105

105:                                              ; preds = %99, %93
  br label %106

106:                                              ; preds = %105
  %107 = load i32, i32* %6, align 4
  %108 = add nsw i32 %107, 1
  store i32 %108, i32* %6, align 4
  br label %86

109:                                              ; preds = %86
  %110 = call i32 @getchar()
  %111 = call i32 @getchar()
  %112 = load i32, i32* %1, align 4
  ret i32 %112
}

declare dso_local i32 @__isoc99_scanf(i8*, ...) #1

declare dso_local i32 @printf(i8*, ...) #1

declare dso_local i32 @getchar() #1


!llvm.module.flags = !{!0}
!llvm.ident = !{!1}

!0 = !{i32 1, !"wchar_size", i32 4}
!1 = !{!"clang version 10.0.0-4ubuntu1 "}
